target datalayout = "e-m:e-p270:32:32-p271:32:32-p272:64:64-i64:64-i128:128-f80:128-n8:16:32:64-S128"
target triple = "x86_64-unknown-linux-gnu"

%struct.QTailQLink = type { ptr, ptr }
%struct.BlockDriverState = type { i32, i8, i8, i8, i8, i8, ptr, ptr, ptr, %struct.anon.0, i8, [4096 x i8], [4096 x i8], [4096 x i8], [16 x i8], ptr, [4096 x i8], %struct.BlockLimits, i32, i32, i32, i32, [32 x i8], %union.anon, %union.anon.1, %union.anon.2, i32, [16 x %struct.anon.3], ptr, %struct.anon.4, ptr, ptr, %struct.anon.5, ptr, ptr, i32, ptr, i64, i64, %struct.QemuMutex, %struct.anon.6, %struct.Stat64, i32, i32, i32, i32, i32, i32, %struct.QemuMutex, %struct.anon.7, %struct.CoQueue, i8, i32, i8, %struct.CoMutex, ptr, ptr }
%struct.anon.0 = type { ptr }
%struct.BlockLimits = type { i32, i64, i32, i64, i32, i32, i32, i64, i32, i64, i64, i32, i8, i32, i32, i32, i32, i32, i32, i32 }
%union.anon = type { %struct.QTailQLink }
%union.anon.1 = type { %struct.QTailQLink }
%union.anon.2 = type { %struct.QTailQLink }
%struct.anon.3 = type { ptr }
%struct.anon.4 = type { ptr }
%struct.anon.5 = type { ptr }
%struct.anon.6 = type { ptr }
%struct.Stat64 = type { i64 }
%struct.QemuMutex = type { %union.pthread_mutex_t, i8 }
%union.pthread_mutex_t = type { %struct.__pthread_mutex_s }
%struct.__pthread_mutex_s = type { i32, i32, i32, i32, i32, i16, i16, %struct.__pthread_internal_list }
%struct.__pthread_internal_list = type { ptr, ptr }
%struct.anon.7 = type { ptr }
%struct.CoQueue = type { %struct.anon.8 }
%struct.anon.8 = type { ptr, ptr }
%struct.CoMutex = type { i32, ptr, %struct.anon.9, %struct.anon.9, i32, i32, ptr }
%struct.anon.9 = type { ptr }
%struct.BDRVQuorumState = type { ptr, i32, i32, i32, i8, i8, i32 }
%struct.QuorumAIOCB = type { ptr, ptr, i64, i64, i32, ptr, ptr, i32, i32, i32, %struct.QuorumVotes, i8, i32, i32 }
%struct.QuorumVotes = type { %struct.anon.15, ptr }
%struct.anon.15 = type { ptr }
%struct.QuorumCo = type { ptr, i32 }

; Function Attrs: nounwind sspstrong uwtable
define internal void @quorum_rewrite_entry(ptr noundef %opaque) #0 {
entry:
  %opaque.addr = alloca ptr, align 8
  %co = alloca ptr, align 8
  %acb = alloca ptr, align 8
  %s = alloca ptr, align 8
  store ptr %opaque, ptr %opaque.addr, align 8
  %0 = load ptr, ptr %opaque.addr, align 8
  store ptr %0, ptr %co, align 8
  %1 = load ptr, ptr %co, align 8
  %acb1 = getelementptr inbounds %struct.QuorumCo, ptr %1, i32 0, i32 0
  %2 = load ptr, ptr %acb1, align 8
  store ptr %2, ptr %acb, align 8
  %3 = load ptr, ptr %acb, align 8
  %bs = getelementptr inbounds %struct.QuorumAIOCB, ptr %3, i32 0, i32 0
  %4 = load ptr, ptr %bs, align 8
  %opaque2 = getelementptr inbounds %struct.BlockDriverState, ptr %4, i32 0, i32 7
  %5 = load ptr, ptr %opaque2, align 8
  store ptr %5, ptr %s, align 8
  %6 = load ptr, ptr %s, align 8
  %children = getelementptr inbounds %struct.BDRVQuorumState, ptr %6, i32 0, i32 0
  %7 = load ptr, ptr %children, align 8
  %8 = load ptr, ptr %co, align 8
  %idx = getelementptr inbounds %struct.QuorumCo, ptr %8, i32 0, i32 1
  %9 = load i32, ptr %idx, align 8
  %idxprom = sext i32 %9 to i64
  %arrayidx = getelementptr ptr, ptr %7, i64 %idxprom
  %10 = load ptr, ptr %arrayidx, align 8
  %11 = load ptr, ptr %acb, align 8
  %offset = getelementptr inbounds %struct.QuorumAIOCB, ptr %11, i32 0, i32 2
  %12 = load i64, ptr %offset, align 8
  %13 = load ptr, ptr %acb, align 8
  %bytes = getelementptr inbounds %struct.QuorumAIOCB, ptr %13, i32 0, i32 3
  %14 = load i64, ptr %bytes, align 8
  %15 = load ptr, ptr %acb, align 8
  %qiov = getelementptr inbounds %struct.QuorumAIOCB, ptr %15, i32 0, i32 5
  %16 = load ptr, ptr %qiov, align 8
  %17 = load ptr, ptr %acb, align 8
  %flags = getelementptr inbounds %struct.QuorumAIOCB, ptr %17, i32 0, i32 4
  %18 = load i32, ptr %flags, align 8
  %and = and i32 %18, -65
  %call = call i32 @bdrv_co_pwritev(ptr noundef %10, i64 noundef %12, i64 noundef %14, ptr noundef %16, i32 noundef %and)
  %19 = load ptr, ptr %acb, align 8
  %rewrite_count = getelementptr inbounds %struct.QuorumAIOCB, ptr %19, i32 0, i32 9
  %20 = load i32, ptr %rewrite_count, align 8
  %dec = add i32 %20, -1
  store i32 %dec, ptr %rewrite_count, align 8
  %21 = load ptr, ptr %acb, align 8
  %rewrite_count3 = getelementptr inbounds %struct.QuorumAIOCB, ptr %21, i32 0, i32 9
  %22 = load i32, ptr %rewrite_count3, align 8
  %tobool = icmp ne i32 %22, 0
  br i1 %tobool, label %if.end, label %if.then

if.then:                                          ; preds = %entry
  %23 = load ptr, ptr %acb, align 8
  %co4 = getelementptr inbounds %struct.QuorumAIOCB, ptr %23, i32 0, i32 1
  %24 = load ptr, ptr %co4, align 8
  call void @qemu_coroutine_enter_if_inactive(ptr noundef %24)
  br label %if.end

if.end:                                           ; preds = %if.then, %entry
  ret void
}