; Function Attrs: nounwind sspstrong uwtable
define internal void @quorum_rewrite_entry(ptr noundef readonly captures(none) %opaque) #0 {
entry:
  %0 = load ptr, ptr %opaque, align 8
  %1 = load ptr, ptr %0, align 8
  %opaque2 = getelementptr inbounds nuw i8, ptr %1, i64 24
  %2 = load ptr, ptr %opaque2, align 8
  %3 = load ptr, ptr %2, align 8
  %idx = getelementptr inbounds nuw i8, ptr %opaque, i64 8
  %4 = load i32, ptr %idx, align 8
  %idxprom = sext i32 %4 to i64
  %arrayidx = getelementptr ptr, ptr %3, i64 %idxprom
  %5 = load ptr, ptr %arrayidx, align 8
  %offset = getelementptr inbounds nuw i8, ptr %0, i64 16
  %6 = load i64, ptr %offset, align 8
  %bytes = getelementptr inbounds nuw i8, ptr %0, i64 24
  %7 = load i64, ptr %bytes, align 8
  %qiov = getelementptr inbounds nuw i8, ptr %0, i64 40
  %8 = load ptr, ptr %qiov, align 8
  %flags = getelementptr inbounds nuw i8, ptr %0, i64 32
  %9 = load i32, ptr %flags, align 8
  %and = and i32 %9, -65
  %call = tail call i32 @bdrv_co_pwritev(ptr noundef %5, i64 noundef %6, i64 noundef %7, ptr noundef %8, i32 noundef %and) #17
  %rewrite_count = getelementptr inbounds nuw i8, ptr %0, i64 64
  %10 = load i32, ptr %rewrite_count, align 8
  %dec = add i32 %10, -1
  store i32 %dec, ptr %rewrite_count, align 8
  %tobool.not = icmp eq i32 %dec, 0
  br i1 %tobool.not, label %if.then, label %if.end

if.then:                                          ; preds = %entry
  %co4 = getelementptr inbounds nuw i8, ptr %0, i64 8
  %11 = load ptr, ptr %co4, align 8
  tail call void @qemu_coroutine_enter_if_inactive(ptr noundef %11) #17
  br label %if.end

if.end:                                           ; preds = %if.then, %entry
  ret void
}